target datalayout = "e-m:e-p270:32:32-p271:32:32-p272:64:64-i64:64-i128:128-f80:128-n8:16:32:64-S128"
target triple = "x86_64-pc-linux-gnu"

%struct.expert_field = type { i32, i32 }
%struct._packet_info = type { ptr, ptr, i32, i32, %struct.nstime_t, %struct.nstime_t, %struct.nstime_t, i8, ptr, ptr, ptr, ptr, %struct._address, %struct._address, %struct._address, %struct._address, %struct._address, %struct._address, i32, ptr, i8, [3 x i8], %struct.anon, i32, i32, i32, i32, ptr, i8, ptr, ptr, i16, i16, i32, i32, i16, i32, i32, ptr, ptr, ptr, i8, i8, i16, i16, i16, i32, i16, i16, ptr, ptr, ptr, ptr, ptr, i32, i32 }
%struct.nstime_t = type { i64, i32 }
%struct._address = type { i32, i32, ptr, ptr }
%struct.anon = type { i8, [3 x i8] }

@hf_PCEPF_SUBOBJ = internal global i32 0, align 4
@hf_PCEPF_SUBOBJ_7F = internal global i32 0, align 4
@hf_PCEPF_SUBOBJ_IPv6 = internal global i32 0, align 4
@hf_PCEPF_SUBOBJ_XRO = internal global i32 0, align 4
@hf_pcep_subobj_flags_lpa = internal global i32 0, align 4
@hf_pcep_subobj_flags_lpu = internal global i32 0, align 4
@hf_pcep_subobj_ipv6_length = internal global i32 0, align 4
@hf_pcep_subobj_ipv6_ipv6 = internal global i32 0, align 4
@hf_pcep_subobj_ipv6_prefix_length = internal global i32 0, align 4
@hf_pcep_subobj_ipv6_padding = internal global i32 0, align 4
@hf_pcep_subobj_ipv6_flags = internal global i32 0, align 4
@hf_pcep_subobj_ipv6_attribute = internal global i32 0, align 4
@hf_pcep_subobj_ipv6_l = internal global i32 0, align 4
@hf_pcep_subobj_iro_ipv6_l = internal global i32 0, align 4
@hf_pcep_subobj_ipv6_x = internal global i32 0, align 4
@ei_pcep_subobject_bad_length = internal global %struct.expert_field zeroinitializer, align 4
@ei_pcep_non_defined_subobject = internal global %struct.expert_field zeroinitializer, align 4
@.str.723 = private unnamed_addr constant [38 x i8] c"Non defined subobject for this object\00", align 1
@.str.1156 = private unnamed_addr constant [8 x i8] c": %s/%u\00", align 1
@.str.1157 = private unnamed_addr constant [36 x i8] c"Bad IPv6 subobject: length %u != 20\00", align 1

; Function Attrs: null_pointer_is_valid sspstrong uwtable
define internal void @dissect_subobj_ipv6(ptr noundef %0, ptr noundef %1, ptr noundef %2, i32 noundef %3, i32 noundef %4, i32 noundef %5, i32 noundef %6) #0 {
  %8 = alloca ptr, align 8
  %9 = alloca ptr, align 8
  %10 = alloca ptr, align 8
  %11 = alloca i32, align 4
  %12 = alloca i32, align 4
  %13 = alloca i32, align 4
  %14 = alloca i32, align 4
  %15 = alloca ptr, align 8
  %16 = alloca ptr, align 8
  %17 = alloca ptr, align 8
  %18 = alloca i8, align 1
  %19 = alloca i32, align 4
  store ptr %0, ptr %8, align 8
  store ptr %1, ptr %9, align 8
  store ptr %2, ptr %10, align 8
  store i32 %3, ptr %11, align 4
  store i32 %4, ptr %12, align 4
  store i32 %5, ptr %13, align 4
  store i32 %6, ptr %14, align 4
  call void @llvm.lifetime.start.p0(i64 8, ptr %15) #4
  call void @llvm.lifetime.start.p0(i64 8, ptr %16) #4
  call void @llvm.lifetime.start.p0(i64 8, ptr %17) #4
  call void @llvm.lifetime.start.p0(i64 1, ptr %18) #4
  %20 = load ptr, ptr %8, align 8
  %21 = load i32, ptr @hf_PCEPF_SUBOBJ_IPv6, align 4
  %22 = load ptr, ptr %10, align 8
  %23 = load i32, ptr %11, align 4
  %24 = load i32, ptr %14, align 4
  %25 = call ptr @proto_tree_add_item(ptr noundef %20, i32 noundef %21, ptr noundef %22, i32 noundef %23, i32 noundef %24, i32 noundef 0)
  store ptr %25, ptr %17, align 8
  %26 = load ptr, ptr %17, align 8
  %27 = load i32, ptr %13, align 4
  %28 = call ptr @proto_item_add_subtree(ptr noundef %26, i32 noundef %27)
  store ptr %28, ptr %15, align 8
  %29 = load i32, ptr %14, align 4
  %30 = icmp ne i32 %29, 20
  br i1 %30, label %31, label %36

31:                                               ; preds = %7
  %32 = load ptr, ptr %9, align 8
  %33 = load ptr, ptr %17, align 8
  %34 = load i32, ptr %14, align 4
  %35 = call ptr (ptr, ptr, ptr, ptr, ...) @expert_add_info_format(ptr noundef %32, ptr noundef %33, ptr noundef @ei_pcep_subobject_bad_length, ptr noundef @.str.1157, i32 noundef %34)
  store i32 1, ptr %19, align 4
  br label %207

36:                                               ; preds = %7
  %37 = load ptr, ptr %10, align 8
  %38 = load i32, ptr %11, align 4
  %39 = add i32 %38, 18
  %40 = call zeroext i8 @tvb_get_uint8(ptr noundef %37, i32 noundef %39)
  store i8 %40, ptr %18, align 1
  %41 = load ptr, ptr %17, align 8
  %42 = load ptr, ptr %9, align 8
  %43 = getelementptr inbounds nuw %struct._packet_info, ptr %42, i32 0, i32 51
  %44 = load ptr, ptr %43, align 8
  %45 = load ptr, ptr %10, align 8
  %46 = load i32, ptr %11, align 4
  %47 = add i32 %46, 2
  %48 = call ptr @tvb_address_to_str(ptr noundef %44, ptr noundef %45, i32 noundef 3, i32 noundef %47)
  %49 = load i8, ptr %18, align 1
  %50 = zext i8 %49 to i32
  call void (ptr, ptr, ...) @proto_item_append_text(ptr noundef %41, ptr noundef @.str.1156, ptr noundef %48, i32 noundef %50)
  %51 = load i32, ptr %12, align 4
  switch i32 %51, label %202 [
    i32 7, label %52
    i32 29, label %52
    i32 8, label %87
    i32 30, label %87
    i32 10, label %132
    i32 31, label %132
    i32 17, label %167
  ]

52:                                               ; preds = %36, %36
  %53 = load ptr, ptr %15, align 8
  %54 = load i32, ptr @hf_pcep_subobj_ipv6_l, align 4
  %55 = load ptr, ptr %10, align 8
  %56 = load i32, ptr %11, align 4
  %57 = call ptr @proto_tree_add_item(ptr noundef %53, i32 noundef %54, ptr noundef %55, i32 noundef %56, i32 noundef 1, i32 noundef 0)
  %58 = load ptr, ptr %15, align 8
  %59 = load i32, ptr @hf_PCEPF_SUBOBJ_7F, align 4
  %60 = load ptr, ptr %10, align 8
  %61 = load i32, ptr %11, align 4
  %62 = call ptr @proto_tree_add_item(ptr noundef %58, i32 noundef %59, ptr noundef %60, i32 noundef %61, i32 noundef 1, i32 noundef 0)
  %63 = load ptr, ptr %15, align 8
  %64 = load i32, ptr @hf_pcep_subobj_ipv6_length, align 4
  %65 = load ptr, ptr %10, align 8
  %66 = load i32, ptr %11, align 4
  %67 = add i32 %66, 1
  %68 = call ptr @proto_tree_add_item(ptr noundef %63, i32 noundef %64, ptr noundef %65, i32 noundef %67, i32 noundef 1, i32 noundef 0)
  %69 = load ptr, ptr %15, align 8
  %70 = load i32, ptr @hf_pcep_subobj_ipv6_ipv6, align 4
  %71 = load ptr, ptr %10, align 8
  %72 = load i32, ptr %11, align 4
  %73 = add i32 %72, 2
  %74 = call ptr @proto_tree_add_item(ptr noundef %69, i32 noundef %70, ptr noundef %71, i32 noundef %73, i32 noundef 16, i32 noundef 0)
  %75 = load ptr, ptr %15, align 8
  %76 = load i32, ptr @hf_pcep_subobj_ipv6_prefix_length, align 4
  %77 = load ptr, ptr %10, align 8
  %78 = load i32, ptr %11, align 4
  %79 = add i32 %78, 18
  %80 = call ptr @proto_tree_add_item(ptr noundef %75, i32 noundef %76, ptr noundef %77, i32 noundef %79, i32 noundef 1, i32 noundef 0)
  %81 = load ptr, ptr %15, align 8
  %82 = load i32, ptr @hf_pcep_subobj_ipv6_padding, align 4
  %83 = load ptr, ptr %10, align 8
  %84 = load i32, ptr %11, align 4
  %85 = add i32 %84, 19
  %86 = call ptr @proto_tree_add_item(ptr noundef %81, i32 noundef %82, ptr noundef %83, i32 noundef %85, i32 noundef 1, i32 noundef 0)
  br label %206

87:                                               ; preds = %36, %36
  %88 = load ptr, ptr %15, align 8
  %89 = load i32, ptr @hf_PCEPF_SUBOBJ, align 4
  %90 = load ptr, ptr %10, align 8
  %91 = load i32, ptr %11, align 4
  %92 = call ptr @proto_tree_add_item(ptr noundef %88, i32 noundef %89, ptr noundef %90, i32 noundef %91, i32 noundef 1, i32 noundef 0)
  %93 = load ptr, ptr %15, align 8
  %94 = load i32, ptr @hf_pcep_subobj_ipv6_length, align 4
  %95 = load ptr, ptr %10, align 8
  %96 = load i32, ptr %11, align 4
  %97 = add i32 %96, 1
  %98 = call ptr @proto_tree_add_item(ptr noundef %93, i32 noundef %94, ptr noundef %95, i32 noundef %97, i32 noundef 1, i32 noundef 0)
  %99 = load ptr, ptr %15, align 8
  %100 = load i32, ptr @hf_pcep_subobj_ipv6_ipv6, align 4
  %101 = load ptr, ptr %10, align 8
  %102 = load i32, ptr %11, align 4
  %103 = add i32 %102, 2
  %104 = call ptr @proto_tree_add_item(ptr noundef %99, i32 noundef %100, ptr noundef %101, i32 noundef %103, i32 noundef 16, i32 noundef 0)
  %105 = load ptr, ptr %15, align 8
  %106 = load i32, ptr @hf_pcep_subobj_ipv6_prefix_length, align 4
  %107 = load ptr, ptr %10, align 8
  %108 = load i32, ptr %11, align 4
  %109 = add i32 %108, 18
  %110 = call ptr @proto_tree_add_item(ptr noundef %105, i32 noundef %106, ptr noundef %107, i32 noundef %109, i32 noundef 1, i32 noundef 0)
  %111 = load ptr, ptr %15, align 8
  %112 = load i32, ptr @hf_pcep_subobj_ipv6_flags, align 4
  %113 = load ptr, ptr %10, align 8
  %114 = load i32, ptr %11, align 4
  %115 = add i32 %114, 19
  %116 = call ptr @proto_tree_add_item(ptr noundef %111, i32 noundef %112, ptr noundef %113, i32 noundef %115, i32 noundef 1, i32 noundef 0)
  store ptr %116, ptr %17, align 8
  %117 = load ptr, ptr %17, align 8
  %118 = load i32, ptr %13, align 4
  %119 = call ptr @proto_item_add_subtree(ptr noundef %117, i32 noundef %118)
  store ptr %119, ptr %16, align 8
  %120 = load ptr, ptr %16, align 8
  %121 = load i32, ptr @hf_pcep_subobj_flags_lpa, align 4
  %122 = load ptr, ptr %10, align 8
  %123 = load i32, ptr %11, align 4
  %124 = add i32 %123, 19
  %125 = call ptr @proto_tree_add_item(ptr noundef %120, i32 noundef %121, ptr noundef %122, i32 noundef %124, i32 noundef 1, i32 noundef 0)
  %126 = load ptr, ptr %16, align 8
  %127 = load i32, ptr @hf_pcep_subobj_flags_lpu, align 4
  %128 = load ptr, ptr %10, align 8
  %129 = load i32, ptr %11, align 4
  %130 = add i32 %129, 19
  %131 = call ptr @proto_tree_add_item(ptr noundef %126, i32 noundef %127, ptr noundef %128, i32 noundef %130, i32 noundef 1, i32 noundef 0)
  br label %206

132:                                              ; preds = %36, %36
  %133 = load ptr, ptr %15, align 8
  %134 = load i32, ptr @hf_pcep_subobj_iro_ipv6_l, align 4
  %135 = load ptr, ptr %10, align 8
  %136 = load i32, ptr %11, align 4
  %137 = call ptr @proto_tree_add_item(ptr noundef %133, i32 noundef %134, ptr noundef %135, i32 noundef %136, i32 noundef 1, i32 noundef 0)
  %138 = load ptr, ptr %15, align 8
  %139 = load i32, ptr @hf_PCEPF_SUBOBJ_7F, align 4
  %140 = load ptr, ptr %10, align 8
  %141 = load i32, ptr %11, align 4
  %142 = call ptr @proto_tree_add_item(ptr noundef %138, i32 noundef %139, ptr noundef %140, i32 noundef %141, i32 noundef 1, i32 noundef 0)
  %143 = load ptr, ptr %15, align 8
  %144 = load i32, ptr @hf_pcep_subobj_ipv6_length, align 4
  %145 = load ptr, ptr %10, align 8
  %146 = load i32, ptr %11, align 4
  %147 = add i32 %146, 1
  %148 = call ptr @proto_tree_add_item(ptr noundef %143, i32 noundef %144, ptr noundef %145, i32 noundef %147, i32 noundef 1, i32 noundef 0)
  %149 = load ptr, ptr %15, align 8
  %150 = load i32, ptr @hf_pcep_subobj_ipv6_ipv6, align 4
  %151 = load ptr, ptr %10, align 8
  %152 = load i32, ptr %11, align 4
  %153 = add i32 %152, 2
  %154 = call ptr @proto_tree_add_item(ptr noundef %149, i32 noundef %150, ptr noundef %151, i32 noundef %153, i32 noundef 16, i32 noundef 0)
  %155 = load ptr, ptr %15, align 8
  %156 = load i32, ptr @hf_pcep_subobj_ipv6_prefix_length, align 4
  %157 = load ptr, ptr %10, align 8
  %158 = load i32, ptr %11, align 4
  %159 = add i32 %158, 18
  %160 = call ptr @proto_tree_add_item(ptr noundef %155, i32 noundef %156, ptr noundef %157, i32 noundef %159, i32 noundef 1, i32 noundef 0)
  %161 = load ptr, ptr %15, align 8
  %162 = load i32, ptr @hf_pcep_subobj_ipv6_padding, align 4
  %163 = load ptr, ptr %10, align 8
  %164 = load i32, ptr %11, align 4
  %165 = add i32 %164, 19
  %166 = call ptr @proto_tree_add_item(ptr noundef %161, i32 noundef %162, ptr noundef %163, i32 noundef %165, i32 noundef 1, i32 noundef 0)
  br label %206

167:                                              ; preds = %36
  %168 = load ptr, ptr %15, align 8
  %169 = load i32, ptr @hf_pcep_subobj_ipv6_x, align 4
  %170 = load ptr, ptr %10, align 8
  %171 = load i32, ptr %11, align 4
  %172 = call ptr @proto_tree_add_item(ptr noundef %168, i32 noundef %169, ptr noundef %170, i32 noundef %171, i32 noundef 1, i32 noundef 0)
  %173 = load ptr, ptr %15, align 8
  %174 = load i32, ptr @hf_PCEPF_SUBOBJ_XRO, align 4
  %175 = load ptr, ptr %10, align 8
  %176 = load i32, ptr %11, align 4
  %177 = call ptr @proto_tree_add_item(ptr noundef %173, i32 noundef %174, ptr noundef %175, i32 noundef %176, i32 noundef 1, i32 noundef 0)
  %178 = load ptr, ptr %15, align 8
  %179 = load i32, ptr @hf_pcep_subobj_ipv6_length, align 4
  %180 = load ptr, ptr %10, align 8
  %181 = load i32, ptr %11, align 4
  %182 = add i32 %181, 1
  %183 = call ptr @proto_tree_add_item(ptr noundef %178, i32 noundef %179, ptr noundef %180, i32 noundef %182, i32 noundef 1, i32 noundef 0)
  %184 = load ptr, ptr %15, align 8
  %185 = load i32, ptr @hf_pcep_subobj_ipv6_ipv6, align 4
  %186 = load ptr, ptr %10, align 8
  %187 = load i32, ptr %11, align 4
  %188 = add i32 %187, 2
  %189 = call ptr @proto_tree_add_item(ptr noundef %184, i32 noundef %185, ptr noundef %186, i32 noundef %188, i32 noundef 16, i32 noundef 0)
  %190 = load ptr, ptr %15, align 8
  %191 = load i32, ptr @hf_pcep_subobj_ipv6_prefix_length, align 4
  %192 = load ptr, ptr %10, align 8
  %193 = load i32, ptr %11, align 4
  %194 = add i32 %193, 18
  %195 = call ptr @proto_tree_add_item(ptr noundef %190, i32 noundef %191, ptr noundef %192, i32 noundef %194, i32 noundef 1, i32 noundef 0)
  %196 = load ptr, ptr %15, align 8
  %197 = load i32, ptr @hf_pcep_subobj_ipv6_attribute, align 4
  %198 = load ptr, ptr %10, align 8
  %199 = load i32, ptr %11, align 4
  %200 = add i32 %199, 19
  %201 = call ptr @proto_tree_add_item(ptr noundef %196, i32 noundef %197, ptr noundef %198, i32 noundef %200, i32 noundef 1, i32 noundef 0)
  br label %206

202:                                              ; preds = %36
  %203 = load ptr, ptr %9, align 8
  %204 = load ptr, ptr %17, align 8
  %205 = call ptr (ptr, ptr, ptr, ptr, ...) @expert_add_info_format(ptr noundef %203, ptr noundef %204, ptr noundef @ei_pcep_non_defined_subobject, ptr noundef @.str.723)
  br label %206

206:                                              ; preds = %202, %167, %132, %87, %52
  store i32 0, ptr %19, align 4
  br label %207

207:                                              ; preds = %206, %31
  call void @llvm.lifetime.end.p0(i64 1, ptr %18) #4
  call void @llvm.lifetime.end.p0(i64 8, ptr %17) #4
  call void @llvm.lifetime.end.p0(i64 8, ptr %16) #4
  call void @llvm.lifetime.end.p0(i64 8, ptr %15) #4
  %208 = load i32, ptr %19, align 4
  switch i32 %208, label %210 [
    i32 0, label %209
    i32 1, label %209
  ]

209:                                              ; preds = %207, %207
  ret void

210:                                              ; preds = %207
  unreachable
}