; Function Attrs: null_pointer_is_valid sspstrong uwtable
define internal fastcc void @dissect_subobj_ipv6(ptr noundef %0, ptr noundef %1, ptr noundef %2, i32 noundef %3, i32 noundef %4, i32 noundef %5, i32 noundef range(i32 2, 256) %6) unnamed_addr #0 {
  %8 = load i32, ptr @hf_PCEPF_SUBOBJ_IPv6, align 4
  %9 = tail call ptr @proto_tree_add_item(ptr noundef %0, i32 noundef %8, ptr noundef %2, i32 noundef %3, i32 noundef %6, i32 noundef 0)
  %10 = tail call ptr @proto_item_add_subtree(ptr noundef %9, i32 noundef %5)
  %.not = icmp eq i32 %6, 20
  br i1 %.not, label %13, label %11

11:                                               ; preds = %7
  %12 = tail call ptr (ptr, ptr, ptr, ptr, ...) @expert_add_info_format(ptr noundef %1, ptr noundef %9, ptr noundef nonnull @ei_pcep_subobject_bad_length, ptr noundef nonnull @.str.1157, i32 noundef %6)
  br label %86

13:                                               ; preds = %7
  %14 = add i32 %3, 18
  %15 = tail call zeroext i8 @tvb_get_uint8(ptr noundef %2, i32 noundef %14)
  %16 = getelementptr inbounds nuw i8, ptr %1, i64 408
  %17 = load ptr, ptr %16, align 8
  %18 = add i32 %3, 2
  %19 = tail call ptr @tvb_address_to_str(ptr noundef %17, ptr noundef %2, i32 noundef 3, i32 noundef %18)
  %20 = zext i8 %15 to i32
  tail call void (ptr, ptr, ...) @proto_item_append_text(ptr noundef %9, ptr noundef nonnull @.str.1156, ptr noundef %19, i32 noundef %20)
  switch i32 %4, label %84 [
    i32 7, label %21
    i32 29, label %21
    i32 8, label %36
    i32 30, label %36
    i32 10, label %54
    i32 31, label %54
    i32 17, label %69
  ]

21:                                               ; preds = %13, %13
  %22 = load i32, ptr @hf_pcep_subobj_ipv6_l, align 4
  %23 = tail call ptr @proto_tree_add_item(ptr noundef %10, i32 noundef %22, ptr noundef %2, i32 noundef %3, i32 noundef 1, i32 noundef 0)
  %24 = load i32, ptr @hf_PCEPF_SUBOBJ_7F, align 4
  %25 = tail call ptr @proto_tree_add_item(ptr noundef %10, i32 noundef %24, ptr noundef %2, i32 noundef %3, i32 noundef 1, i32 noundef 0)
  %26 = load i32, ptr @hf_pcep_subobj_ipv6_length, align 4
  %27 = add i32 %3, 1
  %28 = tail call ptr @proto_tree_add_item(ptr noundef %10, i32 noundef %26, ptr noundef %2, i32 noundef %27, i32 noundef 1, i32 noundef 0)
  %29 = load i32, ptr @hf_pcep_subobj_ipv6_ipv6, align 4
  %30 = tail call ptr @proto_tree_add_item(ptr noundef %10, i32 noundef %29, ptr noundef %2, i32 noundef %18, i32 noundef 16, i32 noundef 0)
  %31 = load i32, ptr @hf_pcep_subobj_ipv6_prefix_length, align 4
  %32 = tail call ptr @proto_tree_add_item(ptr noundef %10, i32 noundef %31, ptr noundef %2, i32 noundef %14, i32 noundef 1, i32 noundef 0)
  %33 = load i32, ptr @hf_pcep_subobj_ipv6_padding, align 4
  %34 = add i32 %3, 19
  %35 = tail call ptr @proto_tree_add_item(ptr noundef %10, i32 noundef %33, ptr noundef %2, i32 noundef %34, i32 noundef 1, i32 noundef 0)
  br label %86

36:                                               ; preds = %13, %13
  %37 = load i32, ptr @hf_PCEPF_SUBOBJ, align 4
  %38 = tail call ptr @proto_tree_add_item(ptr noundef %10, i32 noundef %37, ptr noundef %2, i32 noundef %3, i32 noundef 1, i32 noundef 0)
  %39 = load i32, ptr @hf_pcep_subobj_ipv6_length, align 4
  %40 = add i32 %3, 1
  %41 = tail call ptr @proto_tree_add_item(ptr noundef %10, i32 noundef %39, ptr noundef %2, i32 noundef %40, i32 noundef 1, i32 noundef 0)
  %42 = load i32, ptr @hf_pcep_subobj_ipv6_ipv6, align 4
  %43 = tail call ptr @proto_tree_add_item(ptr noundef %10, i32 noundef %42, ptr noundef %2, i32 noundef %18, i32 noundef 16, i32 noundef 0)
  %44 = load i32, ptr @hf_pcep_subobj_ipv6_prefix_length, align 4
  %45 = tail call ptr @proto_tree_add_item(ptr noundef %10, i32 noundef %44, ptr noundef %2, i32 noundef %14, i32 noundef 1, i32 noundef 0)
  %46 = load i32, ptr @hf_pcep_subobj_ipv6_flags, align 4
  %47 = add i32 %3, 19
  %48 = tail call ptr @proto_tree_add_item(ptr noundef %10, i32 noundef %46, ptr noundef %2, i32 noundef %47, i32 noundef 1, i32 noundef 0)
  %49 = tail call ptr @proto_item_add_subtree(ptr noundef %48, i32 noundef %5)
  %50 = load i32, ptr @hf_pcep_subobj_flags_lpa, align 4
  %51 = tail call ptr @proto_tree_add_item(ptr noundef %49, i32 noundef %50, ptr noundef %2, i32 noundef %47, i32 noundef 1, i32 noundef 0)
  %52 = load i32, ptr @hf_pcep_subobj_flags_lpu, align 4
  %53 = tail call ptr @proto_tree_add_item(ptr noundef %49, i32 noundef %52, ptr noundef %2, i32 noundef %47, i32 noundef 1, i32 noundef 0)
  br label %86

54:                                               ; preds = %13, %13
  %55 = load i32, ptr @hf_pcep_subobj_iro_ipv6_l, align 4
  %56 = tail call ptr @proto_tree_add_item(ptr noundef %10, i32 noundef %55, ptr noundef %2, i32 noundef %3, i32 noundef 1, i32 noundef 0)
  %57 = load i32, ptr @hf_PCEPF_SUBOBJ_7F, align 4
  %58 = tail call ptr @proto_tree_add_item(ptr noundef %10, i32 noundef %57, ptr noundef %2, i32 noundef %3, i32 noundef 1, i32 noundef 0)
  %59 = load i32, ptr @hf_pcep_subobj_ipv6_length, align 4
  %60 = add i32 %3, 1
  %61 = tail call ptr @proto_tree_add_item(ptr noundef %10, i32 noundef %59, ptr noundef %2, i32 noundef %60, i32 noundef 1, i32 noundef 0)
  %62 = load i32, ptr @hf_pcep_subobj_ipv6_ipv6, align 4
  %63 = tail call ptr @proto_tree_add_item(ptr noundef %10, i32 noundef %62, ptr noundef %2, i32 noundef %18, i32 noundef 16, i32 noundef 0)
  %64 = load i32, ptr @hf_pcep_subobj_ipv6_prefix_length, align 4
  %65 = tail call ptr @proto_tree_add_item(ptr noundef %10, i32 noundef %64, ptr noundef %2, i32 noundef %14, i32 noundef 1, i32 noundef 0)
  %66 = load i32, ptr @hf_pcep_subobj_ipv6_padding, align 4
  %67 = add i32 %3, 19
  %68 = tail call ptr @proto_tree_add_item(ptr noundef %10, i32 noundef %66, ptr noundef %2, i32 noundef %67, i32 noundef 1, i32 noundef 0)
  br label %86

69:                                               ; preds = %13
  %70 = load i32, ptr @hf_pcep_subobj_ipv6_x, align 4
  %71 = tail call ptr @proto_tree_add_item(ptr noundef %10, i32 noundef %70, ptr noundef %2, i32 noundef %3, i32 noundef 1, i32 noundef 0)
  %72 = load i32, ptr @hf_PCEPF_SUBOBJ_XRO, align 4
  %73 = tail call ptr @proto_tree_add_item(ptr noundef %10, i32 noundef %72, ptr noundef %2, i32 noundef %3, i32 noundef 1, i32 noundef 0)
  %74 = load i32, ptr @hf_pcep_subobj_ipv6_length, align 4
  %75 = add i32 %3, 1
  %76 = tail call ptr @proto_tree_add_item(ptr noundef %10, i32 noundef %74, ptr noundef %2, i32 noundef %75, i32 noundef 1, i32 noundef 0)
  %77 = load i32, ptr @hf_pcep_subobj_ipv6_ipv6, align 4
  %78 = tail call ptr @proto_tree_add_item(ptr noundef %10, i32 noundef %77, ptr noundef %2, i32 noundef %18, i32 noundef 16, i32 noundef 0)
  %79 = load i32, ptr @hf_pcep_subobj_ipv6_prefix_length, align 4
  %80 = tail call ptr @proto_tree_add_item(ptr noundef %10, i32 noundef %79, ptr noundef %2, i32 noundef %14, i32 noundef 1, i32 noundef 0)
  %81 = load i32, ptr @hf_pcep_subobj_ipv6_attribute, align 4
  %82 = add i32 %3, 19
  %83 = tail call ptr @proto_tree_add_item(ptr noundef %10, i32 noundef %81, ptr noundef %2, i32 noundef %82, i32 noundef 1, i32 noundef 0)
  br label %86

84:                                               ; preds = %13
  %85 = tail call ptr (ptr, ptr, ptr, ptr, ...) @expert_add_info_format(ptr noundef %1, ptr noundef %9, ptr noundef nonnull @ei_pcep_non_defined_subobject, ptr noundef nonnull @.str.723)
  br label %86

86:                                               ; preds = %21, %36, %54, %69, %84, %11
  ret void
}